; Function Attrs: null_pointer_is_valid sspstrong uwtable
define internal i32 @dissect_timeout_interval(ptr noundef %0, ptr noundef %1, ptr noundef %2, ptr readnone captures(none) %3) #2 {
  %5 = tail call i32 @tvb_reported_length(ptr noundef %0)
  %6 = load i32, ptr @hf_ieee80211_tag_timeout_int_type, align 4
  %7 = tail call ptr @proto_tree_add_item(ptr noundef %2, i32 noundef %6, ptr noundef %0, i32 noundef 0, i32 noundef 1, i32 noundef -2147483648)
  %8 = icmp slt i32 %5, 5
  br i1 %8, label %9, label %11

9:                                                ; preds = %4
  %10 = tail call ptr (ptr, ptr, ptr, ptr, ...) @expert_add_info_format(ptr noundef %1, ptr noundef %7, ptr noundef nonnull @ei_ieee80211_tag_length, ptr noundef nonnull @.str.10115)
  br label %15

11:                                               ; preds = %4
  %12 = load i32, ptr @hf_ieee80211_tag_timeout_int_value, align 4
  %13 = tail call ptr @proto_tree_add_item(ptr noundef %2, i32 noundef %12, ptr noundef %0, i32 noundef 1, i32 noundef 4, i32 noundef -2147483648)
  %14 = tail call i32 @tvb_captured_length(ptr noundef %0)
  br label %15

15:                                               ; preds = %11, %9
  %.0 = phi i32 [ 1, %9 ], [ %14, %11 ]
  ret i32 %.0
}